; Function Attrs: null_pointer_is_valid sspstrong uwtable
define internal fastcc void @print_tls_fragment_tree(ptr noundef nonnull %0, ptr noundef %1, ptr noundef %2, ptr noundef %3, ptr noundef %4) unnamed_addr #0 {
  %6 = alloca ptr, align 8
  call void @llvm.lifetime.start.p0(i64 8, ptr nonnull %6) #15
  %7 = call zeroext i1 @show_fragment_tree(ptr noundef nonnull %0, ptr noundef nonnull @ssl_segment_items, ptr noundef %1, ptr noundef %3, ptr noundef %4, ptr noundef nonnull %6)
  %8 = call ptr @proto_tree_get_parent(ptr noundef %2)
  %9 = load ptr, ptr %6, align 8
  %10 = icmp ne ptr %9, null
  %11 = icmp ne ptr %8, null
  %or.cond = select i1 %10, i1 %11, i1 false
  br i1 %or.cond, label %12, label %13

12:                                               ; preds = %5
  call void @proto_tree_move_item(ptr noundef %1, ptr noundef nonnull %8, ptr noundef nonnull %9)
  br label %13

13:                                               ; preds = %12, %5
  call void @llvm.lifetime.end.p0(i64 8, ptr nonnull %6) #15
  ret void
}